; ModuleID = 'source-C-CXX/44/2405.c'
source_filename = "source-C-CXX/44/2405.c"
target datalayout = "e-m:e-p270:32:32-p271:32:32-p272:64:64-i64:64-f80:128-n8:16:32:64-S128"
target triple = "x86_64-pc-linux-gnu"

@.str = private unnamed_addr constant [5 x i8] c"%s%s\00", align 1
@.str.1 = private unnamed_addr constant [3 x i8] c"%d\00", align 1

; Function Attrs: nofree nounwind sspstrong uwtable
define dso_local i32 @main(i32 %0, i8** nocapture readnone %1) local_unnamed_addr #0 {
  %3 = alloca [100 x i8], align 16
  %4 = alloca [100 x i8], align 16
  %5 = getelementptr inbounds [100 x i8], [100 x i8]* %3, i64 0, i64 0
  call void @llvm.lifetime.start.p0i8(i64 100, i8* nonnull %5) #4
  %6 = getelementptr inbounds [100 x i8], [100 x i8]* %4, i64 0, i64 0
  call void @llvm.lifetime.start.p0i8(i64 100, i8* nonnull %6) #4
  %7 = call i32 (i8*, ...) @__isoc99_scanf(i8* getelementptr inbounds ([5 x i8], [5 x i8]* @.str, i64 0, i64 0), i8* nonnull %5, i8* nonnull %6)
  %8 = load i8, i8* %6, align 16
  %9 = icmp eq i8 %8, 0
  br i1 %9, label %35, label %10

10:                                               ; preds = %2, %32
  %11 = phi i8 [ %34, %32 ], [ %8, %2 ]
  %12 = phi i64 [ %29, %32 ], [ 0, %2 ]
  %13 = phi i32 [ %28, %32 ], [ 0, %2 ]
  %14 = sext i32 %13 to i64
  %15 = getelementptr inbounds [100 x i8], [100 x i8]* %3, i64 0, i64 %14
  %16 = load i8, i8* %15, align 1, !tbaa !5
  %17 = icmp eq i8 %16, %11
  br i1 %17, label %18, label %27

18:                                               ; preds = %10
  %19 = add nsw i32 %13, 1
  %20 = sext i32 %19 to i64
  %21 = call i64 @strlen(i8* noundef nonnull %5) #5
  %22 = icmp eq i64 %21, %20
  br i1 %22, label %23, label %27

23:                                               ; preds = %18
  %24 = trunc i64 %12 to i32
  %25 = sub i32 %24, %13
  %26 = call i32 (i8*, ...) @printf(i8* nonnull dereferenceable(1) getelementptr inbounds ([3 x i8], [3 x i8]* @.str.1, i64 0, i64 0), i32 %25)
  br label %27

27:                                               ; preds = %10, %23, %18
  %28 = phi i32 [ %19, %23 ], [ %19, %18 ], [ 0, %10 ]
  %29 = add nuw i64 %12, 1
  %30 = call i64 @strlen(i8* noundef nonnull %6) #5
  %31 = icmp ugt i64 %30, %29
  br i1 %31, label %32, label %35, !llvm.loop !8

32:                                               ; preds = %27
  %33 = getelementptr inbounds [100 x i8], [100 x i8]* %4, i64 0, i64 %29
  %34 = load i8, i8* %33, align 1, !tbaa !5
  br label %10

35:                                               ; preds = %27, %2
  call void @llvm.lifetime.end.p0i8(i64 100, i8* nonnull %6) #4
  call void @llvm.lifetime.end.p0i8(i64 100, i8* nonnull %5) #4
  ret i32 0
}

; Function Attrs: argmemonly mustprogress nofree nosync nounwind willreturn
declare void @llvm.lifetime.start.p0i8(i64 immarg, i8* nocapture) #1

; Function Attrs: nofree nounwind
declare noundef i32 @__isoc99_scanf(i8* nocapture noundef readonly, ...) local_unnamed_addr #2

; Function Attrs: argmemonly mustprogress nofree nounwind readonly willreturn
declare i64 @strlen(i8* nocapture) local_unnamed_addr #3

; Function Attrs: nofree nounwind
declare noundef i32 @printf(i8* nocapture noundef readonly, ...) local_unnamed_addr #2

; Function Attrs: argmemonly mustprogress nofree nosync nounwind willreturn
declare void @llvm.lifetime.end.p0i8(i64 immarg, i8* nocapture) #1


!llvm.module.flags = !{!0, !1, !2, !3}
!llvm.ident = !{!4}

!0 = !{i32 1, !"wchar_size", i32 4}
!1 = !{i32 7, !"PIC Level", i32 2}
!2 = !{i32 7, !"PIE Level", i32 2}
!3 = !{i32 7, !"uwtable", i32 1}
!4 = !{!"clang version 13.0.0"}
!5 = !{!6, !6, i64 0}
!6 = !{!"omnipotent char", !7, i64 0}
!7 = !{!"Simple C/C++ TBAA"}
!8 = distinct !{!8, !9}
!9 = !{!"llvm.loop.mustprogress"}
